; Function Attrs: nounwind uwtable
define void @dt_bauhaus_widget_set_field(ptr noundef %0, ptr noundef %1, i32 noundef %2) local_unnamed_addr #0 {
  %4 = load atomic i64, ptr @dt_bh_get_type.static_g_define_type_id seq_cst, align 8
  %.not.i.i = icmp eq i64 %4, 0
  br i1 %.not.i.i, label %5, label %DT_BAUHAUS_WIDGET.exit

5:                                                ; preds = %3
  %6 = tail call i32 @g_once_init_enter(ptr noundef nonnull @dt_bh_get_type.static_g_define_type_id) #19
  %.not4.i.i = icmp eq i32 %6, 0
  br i1 %.not4.i.i, label %DT_BAUHAUS_WIDGET.exit, label %7

7:                                                ; preds = %5
  %8 = tail call fastcc i64 @dt_bh_get_type_once()
  tail call void @g_once_init_leave(ptr noundef nonnull @dt_bh_get_type.static_g_define_type_id, i64 noundef %8) #19
  br label %DT_BAUHAUS_WIDGET.exit

DT_BAUHAUS_WIDGET.exit:                           ; preds = %3, %5, %7
  %9 = load i64, ptr @dt_bh_get_type.static_g_define_type_id, align 8, !tbaa !6
  %10 = tail call ptr @g_type_check_instance_cast(ptr noundef %0, i64 noundef %9) #19
  %11 = getelementptr inbounds nuw i8, ptr %10, i64 68
  %12 = load i8, ptr %11, align 4, !tbaa !106
  %.not = icmp eq i8 %12, 0
  br i1 %.not, label %14, label %13

13:                                               ; preds = %DT_BAUHAUS_WIDGET.exit
  tail call void (ptr, ...) @dt_print_ext(ptr noundef nonnull @.str.40, ptr noundef nonnull %11) #19
  br label %14

14:                                               ; preds = %13, %DT_BAUHAUS_WIDGET.exit
  %15 = getelementptr inbounds nuw i8, ptr %10, i64 56
  store ptr %1, ptr %15, align 8, !tbaa !160
  %16 = getelementptr inbounds nuw i8, ptr %10, i64 64
  store i32 %2, ptr %16, align 8, !tbaa !203
  ret void
}